(dp0
S'g'
p1
(lp2
S'Team G'
p3
aI0
aI0
asS'i'
p4
(lp5
S'Team I'
p6
aI0
aI0
asS'h'
p7
(lp8
S'Team H'
p9
aI0
aI0
asS'k'
p10
(lp11
S'Team K'
p12
aI0
aI0
asS'j'
p13
(lp14
S'Team J'
p15
aI0
aI0
asS'l'
p16
(lp17
S'Team L'
p18
aI0
aI0
as.